/*
 * Intel ACPI Component Architecture
 * AML Disassembler version 20120816-32 [Aug 16 2012]
 * Copyright (c) 2000 - 2012 Intel Corporation
 * 
 * Disassembly of fpdt.bin, Mon Feb 13 13:06:47 2017
 *
 * ACPI Data Table [FPDT]
 *
 * Format: [HexOffset DecimalOffset ByteLength]  FieldName : FieldValue
 */

[000h 0000   4]                    Signature : "FPDT"    [Firmware Performance Data Table]
[004h 0004   4]                 Table Length : 00000044
[008h 0008   1]                     Revision : 01
[009h 0009   1]                     Checksum : 88
[00Ah 0010   6]                       Oem ID : "ALASKA"
[010h 0016   8]                 Oem Table ID : "A M I"
[018h 0024   4]                 Oem Revision : 01072009
[01Ch 0028   4]              Asl Compiler ID : "AMI "
[020h 0032   4]        Asl Compiler Revision : 00010013


[024h 0036   2]                Subtable Type : 0001
[026h 0038   1]                       Length : 10
[027h 0039   1]                     Revision : 01
[028h 0040   4]                     Reserved : 00000000
[02Ch 0044   8]                 S3PT Address : 00000000BAEF2018

[034h 0052   2]                Subtable Type : 0000
[036h 0054   1]                       Length : 10
[037h 0055   1]                     Revision : 01
[038h 0056   4]                     Reserved : 00000000
[03Ch 0060   8]                    Reset End : 00000000BAEF2038
**** ACPI table terminates in the middle of a data structure!

Raw Table Data: Length 68 (0x44)

  0000: 46 50 44 54 44 00 00 00 01 88 41 4C 41 53 4B 41  FPDTD.....ALASKA
  0010: 41 20 4D 20 49 00 00 00 09 20 07 01 41 4D 49 20  A M I.... ..AMI 
  0020: 13 00 01 00 01 00 10 01 00 00 00 00 18 20 EF BA  ............. ..
  0030: 00 00 00 00 00 00 10 01 00 00 00 00 38 20 EF BA  ............8 ..
  0040: 00 00 00 00                                      ....
